; ModuleID = '49/1330.c'
source_filename = "49/1330.c"
target datalayout = "e-m:e-p270:32:32-p271:32:32-p272:64:64-i64:64-f80:128-n8:16:32:64-S128"
target triple = "x86_64-pc-linux-gnu"

@.str = private unnamed_addr constant [3 x i8] c"%c\00", align 1
@.str.1 = private unnamed_addr constant [2 x i8] c"\0A\00", align 1

; Function Attrs: noinline nounwind uwtable
define dso_local i32 @find(i8* %0, i32 %1) #0 {
  %3 = alloca i32, align 4
  %4 = alloca i8*, align 8
  %5 = alloca i32, align 4
  %6 = alloca i32, align 4
  %7 = alloca i32, align 4
  %8 = alloca i32, align 4
  %9 = alloca i32, align 4
  store i8* %0, i8** %4, align 8
  store i32 %1, i32* %5, align 4
  store i32 0, i32* %6, align 4
  br label %10

10:                                               ; preds = %104, %2
  %11 = load i8*, i8** %4, align 8
  %12 = load i32, i32* %6, align 4
  %13 = sext i32 %12 to i64
  %14 = getelementptr inbounds i8, i8* %11, i64 %13
  %15 = load i8, i8* %14, align 1
  %16 = sext i8 %15 to i32
  %17 = icmp ne i32 %16, 0
  br i1 %17, label %18, label %107

18:                                               ; preds = %10
  store i32 1, i32* %8, align 4
  %19 = load i8*, i8** %4, align 8
  %20 = load i32, i32* %6, align 4
  %21 = sext i32 %20 to i64
  %22 = getelementptr inbounds i8, i8* %19, i64 %21
  %23 = load i8, i8* %22, align 1
  %24 = sext i8 %23 to i32
  %25 = load i8*, i8** %4, align 8
  %26 = load i32, i32* %6, align 4
  %27 = load i32, i32* %5, align 4
  %28 = add nsw i32 %26, %27
  %29 = sub nsw i32 %28, 1
  %30 = sext i32 %29 to i64
  %31 = getelementptr inbounds i8, i8* %25, i64 %30
  %32 = load i8, i8* %31, align 1
  %33 = sext i8 %32 to i32
  %34 = icmp eq i32 %24, %33
  br i1 %34, label %35, label %103

35:                                               ; preds = %18
  %36 = load i32, i32* %6, align 4
  %37 = add nsw i32 %36, 1
  store i32 %37, i32* %7, align 4
  %38 = load i32, i32* %6, align 4
  %39 = load i32, i32* %5, align 4
  %40 = add nsw i32 %38, %39
  %41 = sub nsw i32 %40, 2
  store i32 %41, i32* %9, align 4
  br label %42

42:                                               ; preds = %65, %35
  %43 = load i8*, i8** %4, align 8
  %44 = load i32, i32* %7, align 4
  %45 = sext i32 %44 to i64
  %46 = getelementptr inbounds i8, i8* %43, i64 %45
  %47 = load i8, i8* %46, align 1
  %48 = sext i8 %47 to i32
  %49 = load i8*, i8** %4, align 8
  %50 = load i32, i32* %9, align 4
  %51 = sext i32 %50 to i64
  %52 = getelementptr inbounds i8, i8* %49, i64 %51
  %53 = load i8, i8* %52, align 1
  %54 = sext i8 %53 to i32
  %55 = icmp eq i32 %48, %54
  br i1 %55, label %56, label %63

56:                                               ; preds = %42
  %57 = load i32, i32* %7, align 4
  %58 = add nsw i32 %57, 1
  store i32 %58, i32* %7, align 4
  %59 = load i32, i32* %9, align 4
  %60 = add nsw i32 %59, -1
  store i32 %60, i32* %9, align 4
  %61 = load i32, i32* %8, align 4
  %62 = add nsw i32 %61, 1
  store i32 %62, i32* %8, align 4
  br label %64

63:                                               ; preds = %42
  br label %69

64:                                               ; preds = %56
  br label %65

65:                                               ; preds = %64
  %66 = load i32, i32* %9, align 4
  %67 = load i32, i32* %7, align 4
  %68 = icmp sge i32 %66, %67
  br i1 %68, label %42, label %69

69:                                               ; preds = %65, %63
  %70 = load i32, i32* %8, align 4
  %71 = load i32, i32* %5, align 4
  %72 = sdiv i32 %71, 2
  %73 = icmp eq i32 %70, %72
  br i1 %73, label %80, label %74

74:                                               ; preds = %69
  %75 = load i32, i32* %8, align 4
  %76 = load i32, i32* %5, align 4
  %77 = sdiv i32 %76, 2
  %78 = add nsw i32 %77, 1
  %79 = icmp eq i32 %75, %78
  br i1 %79, label %80, label %102

80:                                               ; preds = %74, %69
  %81 = load i32, i32* %6, align 4
  store i32 %81, i32* %7, align 4
  br label %82

82:                                               ; preds = %97, %80
  %83 = load i32, i32* %7, align 4
  %84 = load i32, i32* %6, align 4
  %85 = load i32, i32* %5, align 4
  %86 = add nsw i32 %84, %85
  %87 = sub nsw i32 %86, 1
  %88 = icmp sle i32 %83, %87
  br i1 %88, label %89, label %100

89:                                               ; preds = %82
  %90 = load i8*, i8** %4, align 8
  %91 = load i32, i32* %7, align 4
  %92 = sext i32 %91 to i64
  %93 = getelementptr inbounds i8, i8* %90, i64 %92
  %94 = load i8, i8* %93, align 1
  %95 = sext i8 %94 to i32
  %96 = call i32 (i8*, ...) @printf(i8* getelementptr inbounds ([3 x i8], [3 x i8]* @.str, i64 0, i64 0), i32 %95)
  br label %97

97:                                               ; preds = %89
  %98 = load i32, i32* %7, align 4
  %99 = add nsw i32 %98, 1
  store i32 %99, i32* %7, align 4
  br label %82

100:                                              ; preds = %82
  %101 = call i32 (i8*, ...) @printf(i8* getelementptr inbounds ([2 x i8], [2 x i8]* @.str.1, i64 0, i64 0))
  br label %102

102:                                              ; preds = %100, %74
  br label %103

103:                                              ; preds = %102, %18
  br label %104

104:                                              ; preds = %103
  %105 = load i32, i32* %6, align 4
  %106 = add nsw i32 %105, 1
  store i32 %106, i32* %6, align 4
  br label %10

107:                                              ; preds = %10
  %108 = load i32, i32* %3, align 4
  ret i32 %108
}

declare dso_local i32 @printf(i8*, ...) #1

; Function Attrs: noinline nounwind uwtable
define dso_local i32 @main() #0 {
  %1 = alloca i32, align 4
  %2 = alloca [501 x i8], align 16
  %3 = alloca i32, align 4
  %4 = alloca i32, align 4
  store i32 0, i32* %1, align 4
  %5 = getelementptr inbounds [501 x i8], [501 x i8]* %2, i64 0, i64 0
  %6 = call i32 (i8*, ...) bitcast (i32 (...)* @gets to i32 (i8*, ...)*)(i8* %5)
  %7 = getelementptr inbounds [501 x i8], [501 x i8]* %2, i64 0, i64 0
  %8 = call i64 @strlen(i8* %7) #3
  %9 = trunc i64 %8 to i32
  store i32 %9, i32* %3, align 4
  store i32 2, i32* %4, align 4
  br label %10

10:                                               ; preds = %18, %0
  %11 = load i32, i32* %4, align 4
  %12 = load i32, i32* %3, align 4
  %13 = icmp sle i32 %11, %12
  br i1 %13, label %14, label %21

14:                                               ; preds = %10
  %15 = getelementptr inbounds [501 x i8], [501 x i8]* %2, i64 0, i64 0
  %16 = load i32, i32* %4, align 4
  %17 = call i32 @find(i8* %15, i32 %16)
  br label %18

18:                                               ; preds = %14
  %19 = load i32, i32* %4, align 4
  %20 = add nsw i32 %19, 1
  store i32 %20, i32* %4, align 4
  br label %10

21:                                               ; preds = %10
  %22 = load i32, i32* %1, align 4
  ret i32 %22
}

declare dso_local i32 @gets(...) #1

; Function Attrs: nounwind readonly
declare dso_local i64 @strlen(i8*) #2


!llvm.module.flags = !{!0}
!llvm.ident = !{!1}

!0 = !{i32 1, !"wchar_size", i32 4}
!1 = !{!"clang version 10.0.0-4ubuntu1 "}
